ARM GAS  C:\Users\dragos.nicolae\AppData\Local\Temp\ccl7qBXh.s 			page 1


   1              		.cpu cortex-m4
   2              		.eabi_attribute 27, 1
   3              		.eabi_attribute 28, 1
   4              		.eabi_attribute 20, 1
   5              		.eabi_attribute 21, 1
   6              		.eabi_attribute 23, 3
   7              		.eabi_attribute 24, 1
   8              		.eabi_attribute 25, 1
   9              		.eabi_attribute 26, 1
  10              		.eabi_attribute 30, 1
  11              		.eabi_attribute 34, 1
  12              		.eabi_attribute 18, 4
  13              		.file	"main.c"
  14              		.text
  15              	.Ltext0:
  16              		.cfi_sections	.debug_frame
  17              		.section	.text.Delay,"ax",%progbits
  18              		.align	1
  19              		.global	Delay
  20              		.syntax unified
  21              		.thumb
  22              		.thumb_func
  23              		.fpu fpv4-sp-d16
  25              	Delay:
  26              	.LFB126:
  27              		.file 1 "Src/main.c"
   1:Src/main.c    **** 
   2:Src/main.c    **** /**
   3:Src/main.c    ****   ******************************************************************************
   4:Src/main.c    ****   * @file           : main.c
   5:Src/main.c    ****   * @brief          : Main program body
   6:Src/main.c    ****   ******************************************************************************
   7:Src/main.c    ****   */
   8:Src/main.c    **** 
   9:Src/main.c    **** /* Includes ------------------------------------------------------------------*/
  10:Src/main.c    **** #include "main.h"
  11:Src/main.c    **** 
  12:Src/main.c    **** /* Private variables ---------------------------------------------------------*/
  13:Src/main.c    **** 
  14:Src/main.c    **** /* USER CODE BEGIN PV */
  15:Src/main.c    **** /* Private variables ---------------------------------------------------------*/
  16:Src/main.c    **** 
  17:Src/main.c    **** /* USER CODE END PV */
  18:Src/main.c    **** 
  19:Src/main.c    **** /* Private function prototypes -----------------------------------------------*/
  20:Src/main.c    **** 
  21:Src/main.c    **** #include "main.h"
  22:Src/main.c    **** #include "stdint.h"
  23:Src/main.c    **** #include "init.h"
  24:Src/main.c    **** 
  25:Src/main.c    **** volatile u8 counter= 1U;
  26:Src/main.c    **** volatile u16 a = 0U;
  27:Src/main.c    **** 
  28:Src/main.c    **** void Delay(u32 nTime)
  29:Src/main.c    **** {
  28              		.loc 1 29 0
  29              		.cfi_startproc
ARM GAS  C:\Users\dragos.nicolae\AppData\Local\Temp\ccl7qBXh.s 			page 2


  30              		@ args = 0, pretend = 0, frame = 0
  31              		@ frame_needed = 0, uses_anonymous_args = 0
  32              		@ link register save eliminated.
  33              	.LVL0:
  30:Src/main.c    ****     TimingDelay = nTime;
  34              		.loc 1 30 0
  35 0000 034B     		ldr	r3, .L3
  36 0002 1860     		str	r0, [r3]
  37              	.L2:
  31:Src/main.c    ****     while(TimingDelay != 0);
  38              		.loc 1 31 0 discriminator 1
  39 0004 024B     		ldr	r3, .L3
  40 0006 1B68     		ldr	r3, [r3]
  41 0008 002B     		cmp	r3, #0
  42 000a FBD1     		bne	.L2
  32:Src/main.c    **** }
  43              		.loc 1 32 0
  44 000c 7047     		bx	lr
  45              	.L4:
  46 000e 00BF     		.align	2
  47              	.L3:
  48 0010 00000000 		.word	TimingDelay
  49              		.cfi_endproc
  50              	.LFE126:
  52              		.section	.text.TimingDelay_Decrement,"ax",%progbits
  53              		.align	1
  54              		.global	TimingDelay_Decrement
  55              		.syntax unified
  56              		.thumb
  57              		.thumb_func
  58              		.fpu fpv4-sp-d16
  60              	TimingDelay_Decrement:
  61              	.LFB127:
  33:Src/main.c    **** 
  34:Src/main.c    **** void TimingDelay_Decrement(void)
  35:Src/main.c    **** {
  62              		.loc 1 35 0
  63              		.cfi_startproc
  64              		@ args = 0, pretend = 0, frame = 0
  65              		@ frame_needed = 0, uses_anonymous_args = 0
  66              		@ link register save eliminated.
  36:Src/main.c    ****     if (TimingDelay != 0)
  67              		.loc 1 36 0
  68 0000 034B     		ldr	r3, .L7
  69 0002 1B68     		ldr	r3, [r3]
  70 0004 1BB1     		cbz	r3, .L5
  37:Src/main.c    ****     {
  38:Src/main.c    ****         --TimingDelay;
  71              		.loc 1 38 0
  72 0006 024A     		ldr	r2, .L7
  73 0008 1368     		ldr	r3, [r2]
  74 000a 013B     		subs	r3, r3, #1
  75 000c 1360     		str	r3, [r2]
  76              	.L5:
  39:Src/main.c    ****     }
  40:Src/main.c    **** }
  77              		.loc 1 40 0
ARM GAS  C:\Users\dragos.nicolae\AppData\Local\Temp\ccl7qBXh.s 			page 3


  78 000e 7047     		bx	lr
  79              	.L8:
  80              		.align	2
  81              	.L7:
  82 0010 00000000 		.word	TimingDelay
  83              		.cfi_endproc
  84              	.LFE127:
  86              		.section	.text.debug_check,"ax",%progbits
  87              		.align	1
  88              		.global	debug_check
  89              		.syntax unified
  90              		.thumb
  91              		.thumb_func
  92              		.fpu fpv4-sp-d16
  94              	debug_check:
  95              	.LFB128:
  41:Src/main.c    **** 
  42:Src/main.c    **** 
  43:Src/main.c    **** void debug_check(u16 printed_var)
  44:Src/main.c    **** {
  96              		.loc 1 44 0
  97              		.cfi_startproc
  98              		@ args = 0, pretend = 0, frame = 24
  99              		@ frame_needed = 0, uses_anonymous_args = 0
 100              	.LVL1:
 101 0000 F0B5     		push	{r4, r5, r6, r7, lr}
 102              	.LCFI0:
 103              		.cfi_def_cfa_offset 20
 104              		.cfi_offset 4, -20
 105              		.cfi_offset 5, -16
 106              		.cfi_offset 6, -12
 107              		.cfi_offset 7, -8
 108              		.cfi_offset 14, -4
 109 0002 87B0     		sub	sp, sp, #28
 110              	.LCFI1:
 111              		.cfi_def_cfa_offset 48
  45:Src/main.c    **** 	//u8 debug_msg[20] = "Working!\r\n";
  46:Src/main.c    **** 
  47:Src/main.c    **** 	u8 debug_msg[20] = "";
 112              		.loc 1 47 0
 113 0004 0024     		movs	r4, #0
 114 0006 0194     		str	r4, [sp, #4]
 115 0008 0294     		str	r4, [sp, #8]
 116 000a 0394     		str	r4, [sp, #12]
 117 000c 0494     		str	r4, [sp, #16]
 118 000e 0594     		str	r4, [sp, #20]
  48:Src/main.c    **** 	u8 uart_new_line[2] = "\r\n";
 119              		.loc 1 48 0
 120 0010 40F60D23 		movw	r3, #2573
 121 0014 ADF80030 		strh	r3, [sp]	@ movhi
  49:Src/main.c    **** 	sprintf(debug_msg, "%d", printed_var);
 122              		.loc 1 49 0
 123 0018 204F     		ldr	r7, .L11
 124 001a 0246     		mov	r2, r0
 125 001c 3946     		mov	r1, r7
 126 001e 01A8     		add	r0, sp, #4
 127              	.LVL2:
ARM GAS  C:\Users\dragos.nicolae\AppData\Local\Temp\ccl7qBXh.s 			page 4


 128 0020 FFF7FEFF 		bl	sprintf
 129              	.LVL3:
  50:Src/main.c    **** 	HAL_UART_Transmit(&huart1,debug_msg, 6U, HAL_MAX_DELAY);
 130              		.loc 1 50 0
 131 0024 1E4D     		ldr	r5, .L11+4
 132 0026 4FF0FF33 		mov	r3, #-1
 133 002a 0622     		movs	r2, #6
 134 002c 01A9     		add	r1, sp, #4
 135 002e 2846     		mov	r0, r5
 136 0030 FFF7FEFF 		bl	HAL_UART_Transmit
 137              	.LVL4:
  51:Src/main.c    **** 	HAL_UART_Transmit(&huart1,uart_new_line, 2U, HAL_MAX_DELAY);
 138              		.loc 1 51 0
 139 0034 4FF0FF33 		mov	r3, #-1
 140 0038 0222     		movs	r2, #2
 141 003a 6946     		mov	r1, sp
 142 003c 2846     		mov	r0, r5
 143 003e FFF7FEFF 		bl	HAL_UART_Transmit
 144              	.LVL5:
  52:Src/main.c    **** 
  53:Src/main.c    **** 	sprintf(debug_msg, "%d", counter);
 145              		.loc 1 53 0
 146 0042 184E     		ldr	r6, .L11+8
 147 0044 3278     		ldrb	r2, [r6]	@ zero_extendqisi2
 148 0046 3946     		mov	r1, r7
 149 0048 01A8     		add	r0, sp, #4
 150 004a FFF7FEFF 		bl	sprintf
 151              	.LVL6:
  54:Src/main.c    **** 	HAL_UART_Transmit(&huart1,debug_msg, 6U, HAL_MAX_DELAY);
 152              		.loc 1 54 0
 153 004e 4FF0FF33 		mov	r3, #-1
 154 0052 0622     		movs	r2, #6
 155 0054 01A9     		add	r1, sp, #4
 156 0056 2846     		mov	r0, r5
 157 0058 FFF7FEFF 		bl	HAL_UART_Transmit
 158              	.LVL7:
  55:Src/main.c    **** 	HAL_UART_Transmit(&huart1,uart_new_line, 2U, HAL_MAX_DELAY);
 159              		.loc 1 55 0
 160 005c 4FF0FF33 		mov	r3, #-1
 161 0060 0222     		movs	r2, #2
 162 0062 6946     		mov	r1, sp
 163 0064 2846     		mov	r0, r5
 164 0066 FFF7FEFF 		bl	HAL_UART_Transmit
 165              	.LVL8:
  56:Src/main.c    **** 	++counter;
 166              		.loc 1 56 0
 167 006a 3378     		ldrb	r3, [r6]	@ zero_extendqisi2
 168 006c 0133     		adds	r3, r3, #1
 169 006e DBB2     		uxtb	r3, r3
 170 0070 3370     		strb	r3, [r6]
  57:Src/main.c    **** 
  58:Src/main.c    **** 	LED_ON
 171              		.loc 1 58 0
 172 0072 0D4D     		ldr	r5, .L11+12
 173 0074 0122     		movs	r2, #1
 174 0076 2021     		movs	r1, #32
 175 0078 2846     		mov	r0, r5
ARM GAS  C:\Users\dragos.nicolae\AppData\Local\Temp\ccl7qBXh.s 			page 5


 176 007a FFF7FEFF 		bl	HAL_GPIO_WritePin
 177              	.LVL9:
  59:Src/main.c    **** 	Delay(DELAY_TEST);
 178              		.loc 1 59 0
 179 007e 4FF47A70 		mov	r0, #1000
 180 0082 FFF7FEFF 		bl	Delay
 181              	.LVL10:
  60:Src/main.c    **** 	LED_OFF
 182              		.loc 1 60 0
 183 0086 2246     		mov	r2, r4
 184 0088 2021     		movs	r1, #32
 185 008a 2846     		mov	r0, r5
 186 008c FFF7FEFF 		bl	HAL_GPIO_WritePin
 187              	.LVL11:
  61:Src/main.c    **** 	Delay(DELAY_TEST);
 188              		.loc 1 61 0
 189 0090 4FF47A70 		mov	r0, #1000
 190 0094 FFF7FEFF 		bl	Delay
 191              	.LVL12:
  62:Src/main.c    **** }
 192              		.loc 1 62 0
 193 0098 07B0     		add	sp, sp, #28
 194              	.LCFI2:
 195              		.cfi_def_cfa_offset 20
 196              		@ sp needed
 197 009a F0BD     		pop	{r4, r5, r6, r7, pc}
 198              	.L12:
 199              		.align	2
 200              	.L11:
 201 009c 00000000 		.word	.LC0
 202 00a0 00000000 		.word	huart1
 203 00a4 00000000 		.word	.LANCHOR0
 204 00a8 00000240 		.word	1073872896
 205              		.cfi_endproc
 206              	.LFE128:
 208              		.section	.text.main,"ax",%progbits
 209              		.align	1
 210              		.global	main
 211              		.syntax unified
 212              		.thumb
 213              		.thumb_func
 214              		.fpu fpv4-sp-d16
 216              	main:
 217              	.LFB129:
  63:Src/main.c    **** 
  64:Src/main.c    **** 
  65:Src/main.c    **** 
  66:Src/main.c    **** int main(void)
  67:Src/main.c    **** {
 218              		.loc 1 67 0
 219              		.cfi_startproc
 220              		@ Volatile: function does not return.
 221              		@ args = 0, pretend = 0, frame = 0
 222              		@ frame_needed = 0, uses_anonymous_args = 0
 223 0000 08B5     		push	{r3, lr}
 224              	.LCFI3:
 225              		.cfi_def_cfa_offset 8
ARM GAS  C:\Users\dragos.nicolae\AppData\Local\Temp\ccl7qBXh.s 			page 6


 226              		.cfi_offset 3, -8
 227              		.cfi_offset 14, -4
  68:Src/main.c    **** 	HAL_Init();
 228              		.loc 1 68 0
 229 0002 FFF7FEFF 		bl	HAL_Init
 230              	.LVL13:
  69:Src/main.c    **** 	SystemClock_Config();
 231              		.loc 1 69 0
 232 0006 FFF7FEFF 		bl	SystemClock_Config
 233              	.LVL14:
  70:Src/main.c    **** 
  71:Src/main.c    **** #if (STD_ON == GPIO_ON)
  72:Src/main.c    **** 	MX_GPIO_Init();
 234              		.loc 1 72 0
 235 000a FFF7FEFF 		bl	MX_GPIO_Init
 236              	.LVL15:
  73:Src/main.c    **** #endif
  74:Src/main.c    **** 
  75:Src/main.c    **** #if (STD_ON == ADC_1)
  76:Src/main.c    **** 	MX_ADC1_Init();
 237              		.loc 1 76 0
 238 000e FFF7FEFF 		bl	MX_ADC1_Init
 239              	.LVL16:
  77:Src/main.c    **** #endif
  78:Src/main.c    **** 
  79:Src/main.c    **** #if (STD_ON == I2C_1)
  80:Src/main.c    **** 	MX_I2C1_Init();
  81:Src/main.c    **** #endif
  82:Src/main.c    **** 
  83:Src/main.c    **** #if (STD_ON == UART_1)
  84:Src/main.c    **** 	MX_USART1_UART_Init();
 240              		.loc 1 84 0
 241 0012 FFF7FEFF 		bl	MX_USART1_UART_Init
 242              	.LVL17:
  85:Src/main.c    **** 	Board_init();
 243              		.loc 1 85 0
 244 0016 FFF7FEFF 		bl	Board_init
 245              	.LVL18:
  86:Src/main.c    **** #endif
  87:Src/main.c    **** 
  88:Src/main.c    **** 
  89:Src/main.c    **** HAL_ADC_Start(&hadc1);
 246              		.loc 1 89 0
 247 001a 0648     		ldr	r0, .L16
 248 001c FFF7FEFF 		bl	HAL_ADC_Start
 249              	.LVL19:
 250              	.L14:
  90:Src/main.c    **** 
  91:Src/main.c    **** 
  92:Src/main.c    **** 	while (1)
  93:Src/main.c    **** 	{
  94:Src/main.c    **** 		//if (HAL_ADC_PollForConversion(&hadc1, 1000000) == HAL_OK)
  95:Src/main.c    **** 
  96:Src/main.c    **** 	a = HAL_ADC_GetValue(&hadc1);
 251              		.loc 1 96 0 discriminator 1
 252 0020 0448     		ldr	r0, .L16
 253 0022 FFF7FEFF 		bl	HAL_ADC_GetValue
ARM GAS  C:\Users\dragos.nicolae\AppData\Local\Temp\ccl7qBXh.s 			page 7


 254              	.LVL20:
 255 0026 80B2     		uxth	r0, r0
 256 0028 034B     		ldr	r3, .L16+4
 257 002a 1880     		strh	r0, [r3]	@ movhi
  97:Src/main.c    **** 
  98:Src/main.c    **** #if (STD_ON == DEBUG_MODE)
  99:Src/main.c    **** 	debug_check(a);
 258              		.loc 1 99 0 discriminator 1
 259 002c 1888     		ldrh	r0, [r3]
 260 002e FFF7FEFF 		bl	debug_check
 261              	.LVL21:
 262 0032 F5E7     		b	.L14
 263              	.L17:
 264              		.align	2
 265              	.L16:
 266 0034 00000000 		.word	hadc1
 267 0038 00000000 		.word	.LANCHOR1
 268              		.cfi_endproc
 269              	.LFE129:
 271              		.section	.text._Error_Handler,"ax",%progbits
 272              		.align	1
 273              		.global	_Error_Handler
 274              		.syntax unified
 275              		.thumb
 276              		.thumb_func
 277              		.fpu fpv4-sp-d16
 279              	_Error_Handler:
 280              	.LFB130:
 100:Src/main.c    **** #endif
 101:Src/main.c    **** 	}
 102:Src/main.c    **** 
 103:Src/main.c    **** }
 104:Src/main.c    **** 
 105:Src/main.c    **** 
 106:Src/main.c    **** void _Error_Handler(char *file, int line)
 107:Src/main.c    **** {
 281              		.loc 1 107 0
 282              		.cfi_startproc
 283              		@ Volatile: function does not return.
 284              		@ args = 0, pretend = 0, frame = 0
 285              		@ frame_needed = 0, uses_anonymous_args = 0
 286              		@ link register save eliminated.
 287              	.LVL22:
 288              	.L19:
 289 0000 FEE7     		b	.L19
 290              		.cfi_endproc
 291              	.LFE130:
 293              		.global	a
 294              		.global	counter
 295              		.comm	TimingDelay,4,4
 296              		.comm	huart1,64,4
 297              		.comm	hadc1,72,4
 298              		.section	.bss.a,"aw",%nobits
 299              		.align	1
 300              		.set	.LANCHOR1,. + 0
 303              	a:
 304 0000 0000     		.space	2
ARM GAS  C:\Users\dragos.nicolae\AppData\Local\Temp\ccl7qBXh.s 			page 8


 305              		.section	.data.counter,"aw",%progbits
 306              		.set	.LANCHOR0,. + 0
 309              	counter:
 310 0000 01       		.byte	1
 311              		.section	.rodata.debug_check.str1.4,"aMS",%progbits,1
 312              		.align	2
 313              	.LC0:
 314 0000 256400   		.ascii	"%d\000"
 315              		.text
 316              	.Letext0:
 317              		.file 2 "c:\\program files (x86)\\gnu tools arm embedded\\7 2018-q2-update\\arm-none-eabi\\include
 318              		.file 3 "c:\\program files (x86)\\gnu tools arm embedded\\7 2018-q2-update\\arm-none-eabi\\include
 319              		.file 4 "Drivers/CMSIS/Include/core_cm4.h"
 320              		.file 5 "Drivers/CMSIS/Device/ST/STM32F4xx/Include/system_stm32f4xx.h"
 321              		.file 6 "Drivers/CMSIS/Device/ST/STM32F4xx/Include/stm32f401xe.h"
 322              		.file 7 "c:\\program files (x86)\\gnu tools arm embedded\\7 2018-q2-update\\arm-none-eabi\\include
 323              		.file 8 "c:\\program files (x86)\\gnu tools arm embedded\\7 2018-q2-update\\arm-none-eabi\\include
 324              		.file 9 "c:\\program files (x86)\\gnu tools arm embedded\\7 2018-q2-update\\lib\\gcc\\arm-none-eab
 325              		.file 10 "c:\\program files (x86)\\gnu tools arm embedded\\7 2018-q2-update\\arm-none-eabi\\includ
 326              		.file 11 "Drivers/STM32F4xx_HAL_Driver/Inc/stm32f4xx_hal_def.h"
 327              		.file 12 "Drivers/STM32F4xx_HAL_Driver/Inc/stm32f4xx_hal_dma.h"
 328              		.file 13 "Drivers/STM32F4xx_HAL_Driver/Inc/stm32f4xx_hal_adc.h"
 329              		.file 14 "Drivers/STM32F4xx_HAL_Driver/Inc/stm32f4xx_hal_uart.h"
 330              		.file 15 "Inc/generic.h"
 331              		.file 16 "Inc/init.h"
 332              		.file 17 "Inc/main.h"
 333              		.file 18 "Drivers/STM32F4xx_HAL_Driver/Inc/stm32f4xx_hal.h"
 334              		.file 19 "c:\\program files (x86)\\gnu tools arm embedded\\7 2018-q2-update\\arm-none-eabi\\includ
 335              		.file 20 "Drivers/STM32F4xx_HAL_Driver/Inc/stm32f4xx_hal_gpio.h"
ARM GAS  C:\Users\dragos.nicolae\AppData\Local\Temp\ccl7qBXh.s 			page 9


DEFINED SYMBOLS
                            *ABS*:00000000 main.c
C:\Users\dragos.nicolae\AppData\Local\Temp\ccl7qBXh.s:18     .text.Delay:00000000 $t
C:\Users\dragos.nicolae\AppData\Local\Temp\ccl7qBXh.s:25     .text.Delay:00000000 Delay
C:\Users\dragos.nicolae\AppData\Local\Temp\ccl7qBXh.s:48     .text.Delay:00000010 $d
                            *COM*:00000004 TimingDelay
C:\Users\dragos.nicolae\AppData\Local\Temp\ccl7qBXh.s:53     .text.TimingDelay_Decrement:00000000 $t
C:\Users\dragos.nicolae\AppData\Local\Temp\ccl7qBXh.s:60     .text.TimingDelay_Decrement:00000000 TimingDelay_Decrement
C:\Users\dragos.nicolae\AppData\Local\Temp\ccl7qBXh.s:82     .text.TimingDelay_Decrement:00000010 $d
C:\Users\dragos.nicolae\AppData\Local\Temp\ccl7qBXh.s:87     .text.debug_check:00000000 $t
C:\Users\dragos.nicolae\AppData\Local\Temp\ccl7qBXh.s:94     .text.debug_check:00000000 debug_check
C:\Users\dragos.nicolae\AppData\Local\Temp\ccl7qBXh.s:201    .text.debug_check:0000009c $d
                            *COM*:00000040 huart1
C:\Users\dragos.nicolae\AppData\Local\Temp\ccl7qBXh.s:209    .text.main:00000000 $t
C:\Users\dragos.nicolae\AppData\Local\Temp\ccl7qBXh.s:216    .text.main:00000000 main
C:\Users\dragos.nicolae\AppData\Local\Temp\ccl7qBXh.s:266    .text.main:00000034 $d
                            *COM*:00000048 hadc1
C:\Users\dragos.nicolae\AppData\Local\Temp\ccl7qBXh.s:272    .text._Error_Handler:00000000 $t
C:\Users\dragos.nicolae\AppData\Local\Temp\ccl7qBXh.s:279    .text._Error_Handler:00000000 _Error_Handler
C:\Users\dragos.nicolae\AppData\Local\Temp\ccl7qBXh.s:303    .bss.a:00000000 a
C:\Users\dragos.nicolae\AppData\Local\Temp\ccl7qBXh.s:309    .data.counter:00000000 counter
C:\Users\dragos.nicolae\AppData\Local\Temp\ccl7qBXh.s:299    .bss.a:00000000 $d
C:\Users\dragos.nicolae\AppData\Local\Temp\ccl7qBXh.s:312    .rodata.debug_check.str1.4:00000000 $d

UNDEFINED SYMBOLS
sprintf
HAL_UART_Transmit
HAL_GPIO_WritePin
HAL_Init
SystemClock_Config
MX_GPIO_Init
MX_ADC1_Init
MX_USART1_UART_Init
Board_init
HAL_ADC_Start
HAL_ADC_GetValue
