ARM GAS  C:\Users\dragos.nicolae\AppData\Local\Temp\ccWtNPiz.s 			page 1


   1              		.cpu cortex-m4
   2              		.eabi_attribute 27, 1
   3              		.eabi_attribute 28, 1
   4              		.eabi_attribute 20, 1
   5              		.eabi_attribute 21, 1
   6              		.eabi_attribute 23, 3
   7              		.eabi_attribute 24, 1
   8              		.eabi_attribute 25, 1
   9              		.eabi_attribute 26, 1
  10              		.eabi_attribute 30, 1
  11              		.eabi_attribute 34, 1
  12              		.eabi_attribute 18, 4
  13              		.file	"main.c"
  14              		.text
  15              	.Ltext0:
  16              		.cfi_sections	.debug_frame
  17              		.section	.text.TimingDelay_Decrement,"ax",%progbits
  18              		.align	1
  19              		.global	TimingDelay_Decrement
  20              		.syntax unified
  21              		.thumb
  22              		.thumb_func
  23              		.fpu fpv4-sp-d16
  25              	TimingDelay_Decrement:
  26              	.LFB127:
  27              		.file 1 "Src/main.c"
   1:Src/main.c    **** 
   2:Src/main.c    **** /**
   3:Src/main.c    ****   ******************************************************************************
   4:Src/main.c    ****   * @file           : main.c
   5:Src/main.c    ****   * @brief          : Main program body
   6:Src/main.c    ****   ******************************************************************************
   7:Src/main.c    ****   */
   8:Src/main.c    **** 
   9:Src/main.c    **** /* Includes ------------------------------------------------------------------*/
  10:Src/main.c    **** #include "main.h"
  11:Src/main.c    **** #include "stm32f4xx_hal.h"
  12:Src/main.c    **** #include "stdint.h"
  13:Src/main.c    **** #include "init.h"
  14:Src/main.c    **** 
  15:Src/main.c    **** 
  16:Src/main.c    **** /* Private variables ---------------------------------------------------------*/
  17:Src/main.c    **** extern huart1;
  18:Src/main.c    **** 
  19:Src/main.c    **** /* USER CODE BEGIN PV */
  20:Src/main.c    **** /* Private variables ---------------------------------------------------------*/
  21:Src/main.c    **** 
  22:Src/main.c    **** /* USER CODE END PV */
  23:Src/main.c    **** 
  24:Src/main.c    **** /* Private function prototypes -----------------------------------------------*/
  25:Src/main.c    **** 
  26:Src/main.c    **** void Delay(u32 nTime)
  27:Src/main.c    **** {
  28:Src/main.c    ****     TimingDelay = nTime;
  29:Src/main.c    ****     while(TimingDelay != 0)
  30:Src/main.c    ****     	{
  31:Src/main.c    ****     	u8 i = 0;
ARM GAS  C:\Users\dragos.nicolae\AppData\Local\Temp\ccWtNPiz.s 			page 2


  32:Src/main.c    ****     	debug_check();
  33:Src/main.c    ****     	}
  34:Src/main.c    **** }
  35:Src/main.c    **** 
  36:Src/main.c    **** void TimingDelay_Decrement(void)
  37:Src/main.c    **** {
  28              		.loc 1 37 0
  29              		.cfi_startproc
  30              		@ args = 0, pretend = 0, frame = 0
  31              		@ frame_needed = 0, uses_anonymous_args = 0
  32              		@ link register save eliminated.
  38:Src/main.c    ****     if (TimingDelay != 0)
  33              		.loc 1 38 0
  34 0000 034B     		ldr	r3, .L3
  35 0002 1B68     		ldr	r3, [r3]
  36 0004 13B1     		cbz	r3, .L1
  39:Src/main.c    ****     {
  40:Src/main.c    ****         TimingDelay--;
  37              		.loc 1 40 0
  38 0006 013B     		subs	r3, r3, #1
  39 0008 014A     		ldr	r2, .L3
  40 000a 1360     		str	r3, [r2]
  41              	.L1:
  41:Src/main.c    ****     }
  42:Src/main.c    **** }
  42              		.loc 1 42 0
  43 000c 7047     		bx	lr
  44              	.L4:
  45 000e 00BF     		.align	2
  46              	.L3:
  47 0010 00000000 		.word	TimingDelay
  48              		.cfi_endproc
  49              	.LFE127:
  51              		.section	.text.hex2str,"ax",%progbits
  52              		.align	1
  53              		.global	hex2str
  54              		.syntax unified
  55              		.thumb
  56              		.thumb_func
  57              		.fpu fpv4-sp-d16
  59              	hex2str:
  60              	.LFB128:
  43:Src/main.c    **** 
  44:Src/main.c    **** 
  45:Src/main.c    **** u8 hex2str(u8 *in ,u8 len, char *out)
  46:Src/main.c    **** {
  61              		.loc 1 46 0
  62              		.cfi_startproc
  63              		@ args = 0, pretend = 0, frame = 16
  64              		@ frame_needed = 0, uses_anonymous_args = 0
  65              		@ link register save eliminated.
  66              	.LVL0:
  67 0000 70B4     		push	{r4, r5, r6}
  68              	.LCFI0:
  69              		.cfi_def_cfa_offset 12
  70              		.cfi_offset 4, -12
  71              		.cfi_offset 5, -8
ARM GAS  C:\Users\dragos.nicolae\AppData\Local\Temp\ccWtNPiz.s 			page 3


  72              		.cfi_offset 6, -4
  73 0002 85B0     		sub	sp, sp, #20
  74              	.LCFI1:
  75              		.cfi_def_cfa_offset 32
  76 0004 0546     		mov	r5, r0
  77 0006 0E46     		mov	r6, r1
  78 0008 1446     		mov	r4, r2
  47:Src/main.c    **** 	u8 temp[16]={'0','1','2','3','4','5','6','7','8','9','A','B','C','D','E','F'};
  79              		.loc 1 47 0
  80 000a 114B     		ldr	r3, .L9
  81 000c 0FCB     		ldm	r3, {r0, r1, r2, r3}
  82              	.LVL1:
  83 000e 0DF1100C 		add	ip, sp, #16
  84 0012 0CE90F00 		stmdb	ip, {r0, r1, r2, r3}
  85              	.LVL2:
  48:Src/main.c    **** 	u8 t,i,j = 0;
  86              		.loc 1 48 0
  87 0016 0020     		movs	r0, #0
  49:Src/main.c    **** 
  50:Src/main.c    **** 	for(i=0;i<len;i++)
  88              		.loc 1 50 0
  89 0018 0346     		mov	r3, r0
  90 001a 14E0     		b	.L6
  91              	.LVL3:
  92              	.L7:
  51:Src/main.c    **** 	{
  52:Src/main.c    **** 		t = (in[i] & 0xF0) >> 4;
  93              		.loc 1 52 0 discriminator 3
  94 001c EA5C     		ldrb	r2, [r5, r3]	@ zero_extendqisi2
  95              	.LVL4:
  53:Src/main.c    **** 		out[j++] = temp[t];
  96              		.loc 1 53 0 discriminator 3
  97 001e 411C     		adds	r1, r0, #1
  98 0020 C9B2     		uxtb	r1, r1
  99              	.LVL5:
 100 0022 0DF1100C 		add	ip, sp, #16
 101 0026 0CEB1212 		add	r2, ip, r2, lsr #4
 102              	.LVL6:
 103 002a 12F8102C 		ldrb	r2, [r2, #-16]	@ zero_extendqisi2
 104 002e 2254     		strb	r2, [r4, r0]
 105              	.LVL7:
  54:Src/main.c    **** 		t = (in[i] & 0x0F) >> 0;
 106              		.loc 1 54 0 discriminator 3
 107 0030 EA5C     		ldrb	r2, [r5, r3]	@ zero_extendqisi2
 108 0032 02F00F02 		and	r2, r2, #15
 109              	.LVL8:
  55:Src/main.c    **** 		out[j++] = temp[t];
 110              		.loc 1 55 0 discriminator 3
 111 0036 0230     		adds	r0, r0, #2
 112 0038 C0B2     		uxtb	r0, r0
 113              	.LVL9:
 114 003a 6244     		add	r2, r2, ip
 115              	.LVL10:
 116 003c 12F8102C 		ldrb	r2, [r2, #-16]	@ zero_extendqisi2
 117 0040 6254     		strb	r2, [r4, r1]
 118              	.LVL11:
  50:Src/main.c    **** 	{
ARM GAS  C:\Users\dragos.nicolae\AppData\Local\Temp\ccWtNPiz.s 			page 4


 119              		.loc 1 50 0 discriminator 3
 120 0042 0133     		adds	r3, r3, #1
 121              	.LVL12:
 122 0044 DBB2     		uxtb	r3, r3
 123              	.LVL13:
 124              	.L6:
  50:Src/main.c    **** 	{
 125              		.loc 1 50 0 is_stmt 0 discriminator 1
 126 0046 B342     		cmp	r3, r6
 127 0048 E8D3     		bcc	.L7
  56:Src/main.c    **** 	}
  57:Src/main.c    **** 	return j;
  58:Src/main.c    **** }
 128              		.loc 1 58 0 is_stmt 1
 129 004a 05B0     		add	sp, sp, #20
 130              	.LCFI2:
 131              		.cfi_def_cfa_offset 12
 132              		@ sp needed
 133 004c 70BC     		pop	{r4, r5, r6}
 134              	.LCFI3:
 135              		.cfi_restore 6
 136              		.cfi_restore 5
 137              		.cfi_restore 4
 138              		.cfi_def_cfa_offset 0
 139              	.LVL14:
 140 004e 7047     		bx	lr
 141              	.L10:
 142              		.align	2
 143              	.L9:
 144 0050 00000000 		.word	.LANCHOR0
 145              		.cfi_endproc
 146              	.LFE128:
 148              		.section	.text.debug_check,"ax",%progbits
 149              		.align	1
 150              		.global	debug_check
 151              		.syntax unified
 152              		.thumb
 153              		.thumb_func
 154              		.fpu fpv4-sp-d16
 156              	debug_check:
 157              	.LFB129:
  59:Src/main.c    **** 
  60:Src/main.c    **** void debug_check(void)
  61:Src/main.c    **** {
 158              		.loc 1 61 0
 159              		.cfi_startproc
 160              		@ args = 0, pretend = 0, frame = 16
 161              		@ frame_needed = 0, uses_anonymous_args = 0
 162 0000 00B5     		push	{lr}
 163              	.LCFI4:
 164              		.cfi_def_cfa_offset 4
 165              		.cfi_offset 14, -4
 166 0002 85B0     		sub	sp, sp, #20
 167              	.LCFI5:
 168              		.cfi_def_cfa_offset 24
  62:Src/main.c    ****     u8 debug_msg[10] = "Working!\r\n";
 169              		.loc 1 62 0
ARM GAS  C:\Users\dragos.nicolae\AppData\Local\Temp\ccWtNPiz.s 			page 5


 170 0004 01AB     		add	r3, sp, #4
 171 0006 074A     		ldr	r2, .L13
 172 0008 07CA     		ldm	r2, {r0, r1, r2}
 173 000a 03C3     		stmia	r3!, {r0, r1}
 174 000c 1A80     		strh	r2, [r3]	@ movhi
  63:Src/main.c    ****     HAL_UART_Transmit(&huart1, debug_msg, sizeof(debug_msg), HAL_MAX_DELAY);
 175              		.loc 1 63 0
 176 000e 4FF0FF33 		mov	r3, #-1
 177 0012 0A22     		movs	r2, #10
 178 0014 01A9     		add	r1, sp, #4
 179 0016 0448     		ldr	r0, .L13+4
 180 0018 FFF7FEFF 		bl	HAL_UART_Transmit
 181              	.LVL15:
  64:Src/main.c    **** }
 182              		.loc 1 64 0
 183 001c 05B0     		add	sp, sp, #20
 184              	.LCFI6:
 185              		.cfi_def_cfa_offset 4
 186              		@ sp needed
 187 001e 5DF804FB 		ldr	pc, [sp], #4
 188              	.L14:
 189 0022 00BF     		.align	2
 190              	.L13:
 191 0024 10000000 		.word	.LANCHOR0+16
 192 0028 00000000 		.word	huart1
 193              		.cfi_endproc
 194              	.LFE129:
 196              		.section	.text.Delay,"ax",%progbits
 197              		.align	1
 198              		.global	Delay
 199              		.syntax unified
 200              		.thumb
 201              		.thumb_func
 202              		.fpu fpv4-sp-d16
 204              	Delay:
 205              	.LFB126:
  27:Src/main.c    ****     TimingDelay = nTime;
 206              		.loc 1 27 0
 207              		.cfi_startproc
 208              		@ args = 0, pretend = 0, frame = 0
 209              		@ frame_needed = 0, uses_anonymous_args = 0
 210              	.LVL16:
 211 0000 08B5     		push	{r3, lr}
 212              	.LCFI7:
 213              		.cfi_def_cfa_offset 8
 214              		.cfi_offset 3, -8
 215              		.cfi_offset 14, -4
  28:Src/main.c    ****     while(TimingDelay != 0)
 216              		.loc 1 28 0
 217 0002 054B     		ldr	r3, .L19
 218 0004 1860     		str	r0, [r3]
  29:Src/main.c    ****     	{
 219              		.loc 1 29 0
 220 0006 01E0     		b	.L16
 221              	.LVL17:
 222              	.L17:
 223              	.LBB2:
ARM GAS  C:\Users\dragos.nicolae\AppData\Local\Temp\ccWtNPiz.s 			page 6


  32:Src/main.c    ****     	}
 224              		.loc 1 32 0
 225 0008 FFF7FEFF 		bl	debug_check
 226              	.LVL18:
 227              	.L16:
 228              	.LBE2:
  29:Src/main.c    ****     	{
 229              		.loc 1 29 0
 230 000c 024B     		ldr	r3, .L19
 231 000e 1B68     		ldr	r3, [r3]
 232 0010 002B     		cmp	r3, #0
 233 0012 F9D1     		bne	.L17
  34:Src/main.c    **** 
 234              		.loc 1 34 0
 235 0014 08BD     		pop	{r3, pc}
 236              	.L20:
 237 0016 00BF     		.align	2
 238              	.L19:
 239 0018 00000000 		.word	TimingDelay
 240              		.cfi_endproc
 241              	.LFE126:
 243              		.section	.text.main,"ax",%progbits
 244              		.align	1
 245              		.global	main
 246              		.syntax unified
 247              		.thumb
 248              		.thumb_func
 249              		.fpu fpv4-sp-d16
 251              	main:
 252              	.LFB130:
  65:Src/main.c    **** 
  66:Src/main.c    **** int main(void)
  67:Src/main.c    **** {
 253              		.loc 1 67 0
 254              		.cfi_startproc
 255              		@ Volatile: function does not return.
 256              		@ args = 0, pretend = 0, frame = 16
 257              		@ frame_needed = 0, uses_anonymous_args = 0
 258 0000 00B5     		push	{lr}
 259              	.LCFI8:
 260              		.cfi_def_cfa_offset 4
 261              		.cfi_offset 14, -4
 262 0002 85B0     		sub	sp, sp, #20
 263              	.LCFI9:
 264              		.cfi_def_cfa_offset 24
  68:Src/main.c    ****   HAL_Init();
 265              		.loc 1 68 0
 266 0004 FFF7FEFF 		bl	HAL_Init
 267              	.LVL19:
  69:Src/main.c    ****   SystemClock_Config();
 268              		.loc 1 69 0
 269 0008 FFF7FEFF 		bl	SystemClock_Config
 270              	.LVL20:
  70:Src/main.c    ****   MX_GPIO_Init();
 271              		.loc 1 70 0
 272 000c FFF7FEFF 		bl	MX_GPIO_Init
 273              	.LVL21:
ARM GAS  C:\Users\dragos.nicolae\AppData\Local\Temp\ccWtNPiz.s 			page 7


  71:Src/main.c    ****   MX_ADC1_Init();
 274              		.loc 1 71 0
 275 0010 FFF7FEFF 		bl	MX_ADC1_Init
 276              	.LVL22:
  72:Src/main.c    ****   MX_I2C1_Init();
 277              		.loc 1 72 0
 278 0014 FFF7FEFF 		bl	MX_I2C1_Init
 279              	.LVL23:
  73:Src/main.c    ****   MX_USART1_UART_Init();
 280              		.loc 1 73 0
 281 0018 FFF7FEFF 		bl	MX_USART1_UART_Init
 282              	.LVL24:
  74:Src/main.c    **** 
  75:Src/main.c    ****   char buffer[12] = "Board init!\r\n";
 283              		.loc 1 75 0
 284 001c 01AC     		add	r4, sp, #4
 285 001e 094B     		ldr	r3, .L24
 286 0020 93E80700 		ldm	r3, {r0, r1, r2}
 287 0024 84E80700 		stm	r4, {r0, r1, r2}
  76:Src/main.c    **** 
  77:Src/main.c    ****   HAL_UART_Transmit(&huart1, buffer, sizeof(buffer), HAL_MAX_DELAY);
 288              		.loc 1 77 0
 289 0028 4FF0FF33 		mov	r3, #-1
 290 002c 0C22     		movs	r2, #12
 291 002e 2146     		mov	r1, r4
 292 0030 0548     		ldr	r0, .L24+4
 293 0032 FFF7FEFF 		bl	HAL_UART_Transmit
 294              	.LVL25:
  78:Src/main.c    ****   Delay(100);
 295              		.loc 1 78 0
 296 0036 6420     		movs	r0, #100
 297 0038 FFF7FEFF 		bl	Delay
 298              	.LVL26:
 299              	.L22:
  79:Src/main.c    **** 
  80:Src/main.c    **** 
  81:Src/main.c    **** 
  82:Src/main.c    ****   while (1)
  83:Src/main.c    ****   {
  84:Src/main.c    **** 	  debug_check();
 300              		.loc 1 84 0 discriminator 1
 301 003c FFF7FEFF 		bl	debug_check
 302              	.LVL27:
 303 0040 FCE7     		b	.L22
 304              	.L25:
 305 0042 00BF     		.align	2
 306              	.L24:
 307 0044 1C000000 		.word	.LANCHOR0+28
 308 0048 00000000 		.word	huart1
 309              		.cfi_endproc
 310              	.LFE130:
 312              		.section	.text._Error_Handler,"ax",%progbits
 313              		.align	1
 314              		.global	_Error_Handler
 315              		.syntax unified
 316              		.thumb
 317              		.thumb_func
ARM GAS  C:\Users\dragos.nicolae\AppData\Local\Temp\ccWtNPiz.s 			page 8


 318              		.fpu fpv4-sp-d16
 320              	_Error_Handler:
 321              	.LFB131:
  85:Src/main.c    ****    //debug_msg = hex2str(TimingDelay,sizeof(TimingDelay),buf_out);
  86:Src/main.c    ****    //HAL_UART_Transmit(&huart1, debug_msg, sizeof(debug_msg), HAL_MAX_DELAY);
  87:Src/main.c    ****    //HAL_UART_Transmit(&huart1, "\r\n",2, HAL_MAX_DELAY);
  88:Src/main.c    ****   }
  89:Src/main.c    **** 
  90:Src/main.c    **** }
  91:Src/main.c    **** 
  92:Src/main.c    **** 
  93:Src/main.c    **** void _Error_Handler(char *file, int line)
  94:Src/main.c    **** {
 322              		.loc 1 94 0
 323              		.cfi_startproc
 324              		@ Volatile: function does not return.
 325              		@ args = 0, pretend = 0, frame = 0
 326              		@ frame_needed = 0, uses_anonymous_args = 0
 327              		@ link register save eliminated.
 328              	.LVL28:
 329              	.L27:
 330 0000 FEE7     		b	.L27
 331              		.cfi_endproc
 332              	.LFE131:
 334              		.comm	TimingDelay,4,4
 335              		.section	.rodata
 336              		.align	2
 337              		.set	.LANCHOR0,. + 0
 338              	.LC0:
 339 0000 30       		.byte	48
 340 0001 31       		.byte	49
 341 0002 32       		.byte	50
 342 0003 33       		.byte	51
 343 0004 34       		.byte	52
 344 0005 35       		.byte	53
 345 0006 36       		.byte	54
 346 0007 37       		.byte	55
 347 0008 38       		.byte	56
 348 0009 39       		.byte	57
 349 000a 41       		.byte	65
 350 000b 42       		.byte	66
 351 000c 43       		.byte	67
 352 000d 44       		.byte	68
 353 000e 45       		.byte	69
 354 000f 46       		.byte	70
 355              	.LC1:
 356 0010 576F726B 		.ascii	"Working!\015\012\000"
 356      696E6721 
 356      0D0A00
 357 001b 00       		.space	1
 358              	.LC2:
 359 001c 426F6172 		.ascii	"Board init!\015\012\000"
 359      6420696E 
 359      6974210D 
 359      0A00
 360              		.text
 361              	.Letext0:
ARM GAS  C:\Users\dragos.nicolae\AppData\Local\Temp\ccWtNPiz.s 			page 9


 362              		.file 2 "c:\\program files (x86)\\gnu tools arm embedded\\7 2018-q2-update\\arm-none-eabi\\include
 363              		.file 3 "c:\\program files (x86)\\gnu tools arm embedded\\7 2018-q2-update\\arm-none-eabi\\include
 364              		.file 4 "Inc/main.h"
 365              		.file 5 "Drivers/CMSIS/Include/core_cm4.h"
 366              		.file 6 "Drivers/CMSIS/Device/ST/STM32F4xx/Include/system_stm32f4xx.h"
 367              		.file 7 "c:\\program files (x86)\\gnu tools arm embedded\\7 2018-q2-update\\arm-none-eabi\\include
 368              		.file 8 "c:\\program files (x86)\\gnu tools arm embedded\\7 2018-q2-update\\arm-none-eabi\\include
 369              		.file 9 "c:\\program files (x86)\\gnu tools arm embedded\\7 2018-q2-update\\lib\\gcc\\arm-none-eab
 370              		.file 10 "c:\\program files (x86)\\gnu tools arm embedded\\7 2018-q2-update\\arm-none-eabi\\includ
 371              		.file 11 "Drivers/STM32F4xx_HAL_Driver/Inc/stm32f4xx_hal.h"
 372              		.file 12 "Inc/init.h"
 373              		.file 13 "Drivers/STM32F4xx_HAL_Driver/Inc/stm32f4xx_hal_uart.h"
ARM GAS  C:\Users\dragos.nicolae\AppData\Local\Temp\ccWtNPiz.s 			page 10


DEFINED SYMBOLS
                            *ABS*:00000000 main.c
C:\Users\dragos.nicolae\AppData\Local\Temp\ccWtNPiz.s:18     .text.TimingDelay_Decrement:00000000 $t
C:\Users\dragos.nicolae\AppData\Local\Temp\ccWtNPiz.s:25     .text.TimingDelay_Decrement:00000000 TimingDelay_Decrement
C:\Users\dragos.nicolae\AppData\Local\Temp\ccWtNPiz.s:47     .text.TimingDelay_Decrement:00000010 $d
                            *COM*:00000004 TimingDelay
C:\Users\dragos.nicolae\AppData\Local\Temp\ccWtNPiz.s:52     .text.hex2str:00000000 $t
C:\Users\dragos.nicolae\AppData\Local\Temp\ccWtNPiz.s:59     .text.hex2str:00000000 hex2str
C:\Users\dragos.nicolae\AppData\Local\Temp\ccWtNPiz.s:144    .text.hex2str:00000050 $d
C:\Users\dragos.nicolae\AppData\Local\Temp\ccWtNPiz.s:149    .text.debug_check:00000000 $t
C:\Users\dragos.nicolae\AppData\Local\Temp\ccWtNPiz.s:156    .text.debug_check:00000000 debug_check
C:\Users\dragos.nicolae\AppData\Local\Temp\ccWtNPiz.s:191    .text.debug_check:00000024 $d
C:\Users\dragos.nicolae\AppData\Local\Temp\ccWtNPiz.s:197    .text.Delay:00000000 $t
C:\Users\dragos.nicolae\AppData\Local\Temp\ccWtNPiz.s:204    .text.Delay:00000000 Delay
C:\Users\dragos.nicolae\AppData\Local\Temp\ccWtNPiz.s:239    .text.Delay:00000018 $d
C:\Users\dragos.nicolae\AppData\Local\Temp\ccWtNPiz.s:244    .text.main:00000000 $t
C:\Users\dragos.nicolae\AppData\Local\Temp\ccWtNPiz.s:251    .text.main:00000000 main
C:\Users\dragos.nicolae\AppData\Local\Temp\ccWtNPiz.s:307    .text.main:00000044 $d
C:\Users\dragos.nicolae\AppData\Local\Temp\ccWtNPiz.s:313    .text._Error_Handler:00000000 $t
C:\Users\dragos.nicolae\AppData\Local\Temp\ccWtNPiz.s:320    .text._Error_Handler:00000000 _Error_Handler
C:\Users\dragos.nicolae\AppData\Local\Temp\ccWtNPiz.s:336    .rodata:00000000 $d

UNDEFINED SYMBOLS
HAL_UART_Transmit
huart1
HAL_Init
SystemClock_Config
MX_GPIO_Init
MX_ADC1_Init
MX_I2C1_Init
MX_USART1_UART_Init
